; Function Attrs: nounwind uwtable
define void @cli_targetinfo_init(ptr noundef %0) local_unnamed_addr #0 {
  %2 = icmp eq ptr %0, null
  br i1 %2, label %6, label %3

3:                                                ; preds = %1
  %4 = getelementptr inbounds i8, ptr %0, i64 384
  store i32 0, ptr %4, align 8
  %5 = getelementptr inbounds i8, ptr %0, i64 8
  tail call void @cli_exe_info_init(ptr noundef nonnull %5, i32 noundef 0) #12
  br label %6

6:                                                ; preds = %1, %3
  ret void
}